(lp1
(F1363544604.940392
F1363544605.3197191
tp2
a(F1363544605.441184
F1363544605.8265469
tp3
a(F1363544605.9418449
F1363544606.2805231
tp4
a(F1363544606.4431441
F1363544606.775296
tp5
a(F1363544606.9441299
F1363544607.3088601
tp6
a(F1363544607.4447391
F1363544607.751215
tp7
a(F1363544607.946785
F1363544608.2827411
tp8
a(F1363544608.4474361
F1363544608.7605481
tp9
a(F1363544608.947886
F1363544609.239548
tp10
a(F1363544609.449523
F1363544609.7757289
tp11
a(F1363544609.9507811
F1363544610.246964
tp12
a(F1363544610.4528289
F1363544610.7833481
tp13
a(F1363544610.954257
F1363544611.2787769
tp14
a(F1363544611.455833
F1363544611.7597599
tp15
a(F1363544611.9574139
F1363544612.2916131
tp16
a(F1363544612.458379
F1363544612.7753911
tp17
a(F1363544612.958621
F1363544613.2551141
tp18
a(F1363544613.4589369
F1363544613.7818389
tp19
a(F1363544613.9609411
F1363544614.25927
tp20
a(F1363544614.4610341
F1363544614.7907741
tp21
a(F1363544614.9617131
F1363544615.2725151
tp22
a(F1363544615.4619119
F1363544615.7593851
tp23
a(F1363544615.9632421
F1363544616.2853529
tp24
a(F1363544616.4644549
F1363544616.7859199
tp25
a(F1363544616.9650531
F1363544617.2618611
tp26
a(F1363544617.4656811
F1363544617.790695
tp27
a(F1363544617.965688
F1363544618.2726021
tp28
a(F1363544618.4661269
F1363544618.750385
tp29
a(F1363544618.9665511
F1363544619.284867
tp30
a(F1363544619.468102
F1363544619.7761741
tp31
a(F1363544619.9696801
F1363544620.293782
tp32
a(F1363544620.470809
F1363544620.785887
tp33
a(F1363544620.9711871
F1363544621.3027329
tp34
a(F1363544621.471529
F1363544621.7901189
tp35
a(F1363544621.9733429
F1363544622.257931
tp36
a(F1363544622.474159
F1363544622.812721
tp37
a(F1363544622.9753649
F1363544623.2995591
tp38
a(F1363544623.4765871
F1363544623.7815671
tp39
a(F1363544623.977124
F1363544624.318439
tp40
a(F1363544624.479017
F1363544624.7942281
tp41
a(F1363544624.979588
F1363544625.2715399
tp42
a(F1363544625.481539
F1363544625.8134229
tp43
a(F1363544625.9822879
F1363544626.2884719
tp44
a(F1363544626.4840641
F1363544626.8148551
tp45
a(F1363544626.9857571
F1363544627.29515
tp46
a(F1363544627.486625
F1363544627.7846079
tp47
a(F1363544627.9884379
F1363544628.3102391
tp48
a(F1363544628.4893579
F1363544628.7866809
tp49
a(F1363544628.9906111
F1363544629.3140039
tp50
a(F1363544629.491035
F1363544629.8244939
tp51
a(F1363544629.9913299
F1363544630.3024521
tp52
a(F1363544630.4918571
F1363544630.7891469
tp53
a(F1363544630.993042
F1363544631.3119929
tp54
a(F1363544631.4931591
F1363544631.79245
tp55
a(F1363544631.994225
F1363544632.3247161
tp56
a(F1363544632.4955931
F1363544632.838125
tp57
a(F1363544632.9966531
F1363544633.2842901
tp58
a(F1363544633.4983971
F1363544633.8160801
tp59
a(F1363544633.999306
F1363544634.295397
tp60
a(F1363544634.501265
F1363544634.826647
tp61
a(F1363544635.0017569
F1363544635.286778
tp62
a(F1363544635.50295
F1363544635.8145339
tp63
a(F1363544636.003983
F1363544636.299932
tp64
a(F1363544636.505806
F1363544636.828757
tp65
a(F1363544637.005841
F1363544637.311007
tp66
a(F1363544637.506603
F1363544637.839309
tp67
a(F1363544638.0081899
F1363544638.322947
tp68
a(F1363544638.508235
F1363544638.8039031
tp69
a(F1363544639.0097749
F1363544639.326977
tp70
a(F1363544639.510215
F1363544639.8103089
tp71
a(F1363544640.012146
F1363544640.3392651
tp72
a(F1363544640.512187
F1363544640.8197291
tp73
a(F1363544641.0134699
F1363544641.340868
tp74
a(F1363544641.5137861
F1363544641.820945
tp75
a(F1363544642.0144789
F1363544642.350868
tp76
a(F1363544642.5156009
F1363544642.835412
tp77
a(F1363544643.0165689
F1363544643.312098
tp78
a(F1363544643.5179501
F1363544643.8317969
tp79
a(F1363544644.0191231
F1363544644.3170769
tp80
a(F1363544644.520859
F1363544644.8534031
tp81
a(F1363544645.0222571
F1363544645.33183
tp82
a(F1363544645.5232711
F1363544645.8265619
tp83
a(F1363544646.024317
F1363544646.3379691
tp84
a(F1363544646.5253069
F1363544646.821281
tp85
a(F1363544647.027365
F1363544647.3395729
tp86
a(F1363544647.5289741
F1363544647.8199749
tp87
a(F1363544648.0299661
F1363544648.3471129
tp88
a(F1363544648.5303371
F1363544648.8338051
tp89
a(F1363544649.031441
F1363544649.365185
tp90
a(F1363544649.5319419
F1363544649.8407619
tp91
a(F1363544650.03229
F1363544650.32515
tp92
a(F1363544650.5330801
F1363544650.855283
tp93
a(F1363544651.0344269
F1363544651.335247
tp94
a(F1363544651.5349939
F1363544651.866884
tp95
a(F1363544652.035712
F1363544652.3421979
tp96
a(F1363544652.535732
F1363544652.828459
tp97
a(F1363544653.0366089
F1363544653.3440621
tp98
a(F1363544653.5375509
F1363544653.8254311
tp99
a(F1363544654.039511
F1363544654.356698
tp100
a(F1363544654.5399339
F1363544654.8354759
tp101
a(F1363544655.0413871
F1363544655.3647411
tp102
a(F1363544655.5417881
F1363544655.8475389
tp103
a(F1363544656.043153
F1363544656.3693981
tp104
a(F1363544656.54439
F1363544656.8652971
tp105
a(F1363544657.0444059
F1363544657.3381059
tp106
a(F1363544657.546087
F1363544657.8714809
tp107
a(F1363544658.0464809
F1363544658.3465829
tp108
a(F1363544658.548353
F1363544658.8813579
tp109
a(F1363544659.050308
F1363544659.3608589
tp110
a(F1363544659.5523009
F1363544659.8831329
tp111
a(F1363544660.05406
F1363544660.3640411
tp112
a(F1363544660.555476
F1363544660.845506
tp113
a(F1363544661.0555179
F1363544661.3727591
tp114
a(F1363544661.5559421
F1363544661.8586011
tp115
a(F1363544662.0562179
F1363544662.389308
tp116
a(F1363544662.558104
F1363544662.8678441
tp117
a(F1363544663.059289
F1363544663.350071
tp118
a(F1363544663.5600359
F1363544663.879689
tp119
a(F1363544664.0608361
F1363544664.3604791
tp120
a(F1363544664.5622101
F1363544664.895613
tp121
a(F1363544665.06234
F1363544665.3702869
tp122
a(F1363544665.563787
F1363544665.852901
tp123
a(F1363544666.0649619
F1363544666.3759241
tp124
a(F1363544666.5653031
F1363544666.8635199
tp125
a(F1363544667.0673151
F1363544667.396476
tp126
a(F1363544667.5673389
F1363544667.874604
tp127
a(F1363544668.068104
F1363544668.404844
tp128
a(F1363544668.5695369
F1363544668.8823891
tp129
a(F1363544669.069716
F1363544669.3605671
tp130
a(F1363544669.5705371
F1363544669.895679
tp131
a(F1363544670.0707259
F1363544670.3724301
tp132
a(F1363544670.5721099
F1363544670.911741
tp133
a(F1363544671.072437
F1363544671.3888919
tp134
a(F1363544671.574162
F1363544671.8759551
tp135
a(F1363544672.0756299
F1363544672.3982699
tp136
a(F1363544672.577358
F1363544672.8805339
tp137
a(F1363544673.0781569
F1363544673.4066341
tp138
a(F1363544673.5795979
F1363544673.8896999
tp139
a(F1363544674.08114
F1363544674.3707321
tp140
a(F1363544674.582756
F1363544674.9003351
tp141
a(F1363544675.083611
F1363544675.386663
tp142
a(F1363544675.584286
F1363544675.917052
tp143
a(F1363544676.0858979
F1363544676.3967321
tp144
a(F1363544676.5861149
F1363544676.8752389
tp145
a(F1363544677.0876529
F1363544677.381242
tp146
a(F1363544677.5891459
F1363544677.9077971
tp147
a(F1363544678.091002
F1363544678.380796
tp148
a(F1363544678.592838
F1363544678.9206841
tp149
a(F1363544679.0936191
F1363544679.4068019
tp150
a(F1363544679.5941379
F1363544679.927387
tp151
a(F1363544680.0942061
F1363544680.4125819
tp152
a(F1363544680.595803
F1363544680.885572
tp153
a(F1363544681.0976501
F1363544681.445461
tp154
a(F1363544681.5978639
F1363544681.8944941
tp155
a(F1363544682.0982959
F1363544682.4266629
tp156
a(F1363544682.5995879
F1363544682.915833
tp157
a(F1363544683.1014409
F1363544683.4009941
tp158
a(F1363544683.602767
F1363544683.916117
tp159
a(F1363544684.103466
F1363544684.3970699
tp160
a(F1363544684.6050079
F1363544684.940032
tp161
a(F1363544685.106864
F1363544685.408608
tp162
a(F1363544685.6083181
F1363544685.9421401
tp163
a(F1363544686.1089339
F1363544686.41731
tp164
a(F1363544686.6108379
F1363544686.890682
tp165
a(F1363544687.110955
F1363544687.4305229
tp166
a(F1363544687.6116879
F1363544687.9137051
tp167
a(F1363544688.1133959
F1363544688.4342451
tp168
a(F1363544688.6154151
F1363544688.931787
tp169
a(F1363544689.11744
F1363544689.4035709
tp170
a(F1363544689.617692
F1363544689.933542
tp171
a(F1363544690.118901
F1363544690.417413
tp172
a(F1363544690.6191759
F1363544690.9434509
tp173
a(F1363544691.120542
F1363544691.4240179
tp174
a(F1363544691.6216519
F1363544691.957763
tp175
a(F1363544692.1224699
F1363544692.440454
tp176
a(F1363544692.6236849
F1363544692.9254811
tp177
a(F1363544693.125186
F1363544693.4482031
tp178
a(F1363544693.6252689
F1363544693.928452
tp179
a(F1363544694.126102
F1363544694.42539
tp180
a(F1363544694.627152
F1363544694.943507
tp181
a(F1363544695.128993
F1363544695.420475
tp182
a(F1363544695.630445
F1363544695.9529631
tp183
a(F1363544696.1321039
F1363544696.4478109
tp184
a(F1363544696.6330719
F1363544697.0232
tp185
a(F1363544697.1343851
F1363544697.4467599
tp186
a(F1363544697.6361639
F1363544697.9221711
tp187
a(F1363544698.136271
F1363544698.4501059
tp188
a(F1363544698.6374569
F1363544698.9323399
tp189
a(F1363544699.138212
F1363544699.465502
tp190
a(F1363544699.638447
F1363544699.945828
tp191
a(F1363544700.1394081
F1363544700.4314511
tp192
a(F1363544700.641417
F1363544700.9597249
tp193
a(F1363544701.1434169
F1363544701.439889
tp194
a(F1363544701.6438191
F1363544701.931555
tp195
a(F1363544702.1456759
F1363544702.463702
tp196
a(F1363544702.6469369
F1363544702.9384601
tp197
a(F1363544703.1484571
F1363544703.4690731
tp198
a(F1363544703.650243
F1363544703.94839
tp199
a(F1363544704.1522081
F1363544704.477598
tp200
a(F1363544704.6525879
F1363544704.9599471
tp201
a(F1363544705.1534519
F1363544705.4403231
tp202
a(F1363544705.6544249
F1363544705.9686019
tp203
a(F1363544706.1559811
F1363544706.4486649
tp204
a(F1363544706.6565931
F1363544706.9818931
tp205
a(F1363544707.157182
F1363544707.4683759
tp206
a(F1363544707.6577871
F1363544707.955595
tp207
a(F1363544708.1594141
F1363544708.4849601
tp208
a(F1363544708.659961
F1363544708.9636121
tp209
a(F1363544709.1612539
F1363544709.445569
tp210
a(F1363544709.6617479
F1363544709.974689
tp211
a(F1363544710.1620319
F1363544710.434094
tp212
a(F1363544710.6626079
F1363544711.0264189
tp213
a(F1363544711.1643569
F1363544711.459142
tp214
a(F1363544711.6650209
F1363544711.9501951
tp215
a(F1363544712.166369
F1363544712.4776421
tp216
a(F1363544712.667052
F1363544712.959239
tp217
a(F1363544713.167675
F1363544713.5020609
tp218
a(F1363544713.6688211
F1363544713.9849391
tp219
a(F1363544714.1702261
F1363544714.5022149
tp220
a(F1363544714.6710219
F1363544715.000741
tp221
a(F1363544715.1716101
F1363544715.4811771
tp222
a(F1363544715.6726451
F1363544715.9607699
tp223
a(F1363544716.172828
F1363544716.4898379
tp224
a(F1363544716.673069
F1363544716.9688439
tp225
a(F1363544717.1747241
F1363544717.499748
tp226
a(F1363544717.6747489
F1363544717.979094
tp227
a(F1363544718.1767371
F1363544718.513377
tp228
a(F1363544718.678086
F1363544718.9907329
tp229
a(F1363544719.178499
F1363544719.539896
tp230
a(F1363544719.679899
F1363544719.976279
tp231
a(F1363544720.18009
F1363544720.5043471
tp232
a(F1363544720.6814001
F1363544720.982794
tp233
a(F1363544721.182498
F1363544721.5606921
tp234
a(F1363544721.6842279
F1363544721.9924531
tp235
a(F1363544722.1859839
F1363544722.4760289
tp236
a(F1363544722.6860189
F1363544722.9909999
tp237
a(F1363544723.1865759
F1363544723.493247
tp238
a(F1363544723.6867781
F1363544724.015063
tp239
a(F1363544724.188015
F1363544724.4965551
tp240
a(F1363544724.688026
F1363544724.965894
tp241
a(F1363544725.188808
F1363544725.5462849
tp242
a(F1363544725.690407
F1363544726.024343
tp243
a(F1363544726.191102
F1363544726.5029531
tp244
a(F1363544726.6923621
F1363544726.987222
tp245
a(F1363544727.1930959
F1363544727.511971
tp246
a(F1363544727.6931961
F1363544727.9914091
tp247
a(F1363544728.19522
F1363544728.520638
tp248
a(F1363544728.6956389
F1363544729.001034
tp249
a(F1363544729.19661
F1363544729.47948
tp250
a(F1363544729.6976991
F1363544730.012198
tp251
a(F1363544730.199542
F1363544730.4937479
tp252
a(F1363544730.6996231
F1363544731.0551381
tp253
a(F1363544731.199646
F1363544731.5820429
tp254
a(F1363544731.701462
F1363544732.0118201
tp255
a.