(lp1
(F1363544476.4934831
F1363544477.0361221
tp2
a(F1363544476.993721
F1363544477.5881319
tp3
a(F1363544477.4938011
F1363544478.0120471
tp4
a(F1363544477.994056
F1363544478.5249381
tp5
a(F1363544478.4943521
F1363544478.981498
tp6
a(F1363544478.996052
F1363544479.5017159
tp7
a(F1363544479.49613
F1363544479.9850321
tp8
a(F1363544479.997519
F1363544480.4902811
tp9
a(F1363544480.4986141
F1363544481.018285
tp10
a(F1363544480.998812
F1363544481.5241289
tp11
a(F1363544481.498862
F1363544482.0193989
tp12
a(F1363544481.9990809
F1363544482.478404
tp13
a(F1363544482.4991851
F1363544483.0006731
tp14
a(F1363544482.999228
F1363544483.491693
tp15
a(F1363544483.500021
F1363544483.9833419
tp16
a(F1363544484.002053
F1363544484.510628
tp17
a(F1363544484.5025561
F1363544484.9987299
tp18
a(F1363544485.0028999
F1363544485.512465
tp19
a(F1363544485.5030169
F1363544485.9727099
tp20
a(F1363544486.0038669
F1363544486.50249
tp21
a(F1363544486.5045829
F1363544486.9760931
tp22
a(F1363544487.0051661
F1363544487.5054049
tp23
a(F1363544487.5052221
F1363544487.994391
tp24
a(F1363544488.0068741
F1363544488.526006
tp25
a(F1363544488.506974
F1363544488.9776649
tp26
a(F1363544489.008822
F1363544489.46714
tp27
a(F1363544489.5107479
F1363544490.007334
tp28
a(F1363544490.011502
F1363544490.4778559
tp29
a(F1363544490.5131769
F1363544490.999893
tp30
a(F1363544491.0144551
F1363544491.520251
tp31
a(F1363544491.5145481
F1363544492.003407
tp32
a(F1363544492.0158939
F1363544492.5453129
tp33
a(F1363544492.515939
F1363544492.9935751
tp34
a(F1363544493.016464
F1363544493.5166919
tp35
a(F1363544493.516511
F1363544493.989521
tp36
a(F1363544494.016542
F1363544494.515842
tp37
a(F1363544494.5179391
F1363544495.004703
tp38
a(F1363544495.019259
F1363544495.548732
tp39
a(F1363544495.5193131
F1363544496.0028069
tp40
a(F1363544496.0194359
F1363544496.5342031
tp41
a(F1363544496.5195079
F1363544497.0071809
tp42
a(F1363544497.0196631
F1363544497.530077
tp43
a(F1363544497.519839
F1363544498.0487151
tp44
a(F1363544498.0202861
F1363544498.5033691
tp45
a(F1363544498.52209
F1363544499.0264161
tp46
a(F1363544499.0221789
F1363544499.5127499
tp47
a(F1363544499.523149
F1363544500.0270281
tp48
a(F1363544500.023181
F1363544500.5104539
tp49
a(F1363544500.5250101
F1363544501.0351579
tp50
a(F1363544501.025074
F1363544501.503742
tp51
a(F1363544501.526597
F1363544502.0247071
tp52
a(F1363544502.0267999
F1363544502.520715
tp53
a(F1363544502.5269639
F1363544503.041564
tp54
a(F1363544503.0269949
F1363544503.4977479
tp55
a(F1363544503.528908
F1363544504.0221779
tp56
a(F1363544504.0305059
F1363544504.5050459
tp57
a(F1363544504.5320621
F1363544505.0368011
tp58
a(F1363544505.0322981
F1363544505.504792
tp59
a(F1363544505.5338781
F1363544506.0336249
tp60
a(F1363544506.035723
F1363544506.5353751
tp61
a(F1363544506.537466
F1363544507.0587251
tp62
a(F1363544507.0375769
F1363544507.569303
tp63
a(F1363544507.5376949
F1363544508.029896
tp64
a(F1363544508.038224
F1363544508.5036249
tp65
a(F1363544508.5389359
F1363544509.03438
tp66
a(F1363544509.0406361
F1363544509.5491359
tp67
a(F1363544509.5408161
F1363544510.0420201
tp68
a(F1363544510.040967
F1363544510.5567369
tp69
a(F1363544510.541028
F1363544511.0497301
tp70
a(F1363544511.0412321
F1363544511.5077
tp71
a(F1363544511.5430131
F1363544512.0297489
tp72
a(F1363544512.0443039
F1363544512.512799
tp73
a(F1363544512.5460379
F1363544513.036387
tp74
a(F1363544513.0467899
F1363544513.523608
tp75
a(F1363544513.548558
F1363544514.0318589
tp76
a(F1363544514.0505719
F1363544514.5405281
tp77
a(F1363544514.5509291
F1363544515.056766
tp78
a(F1363544515.0511601
F1363544515.558049
tp79
a(F1363544515.5512459
F1363544516.092128
tp80
a(F1363544516.0512631
F1363544516.5411341
tp81
a(F1363544516.5515239
F1363544517.03494
tp82
a(F1363544517.0515671
F1363544517.5481369
tp83
a(F1363544517.552309
F1363544518.0248189
tp84
a(F1363544518.0539191
F1363544518.545222
tp85
a(F1363544518.55562
F1363544519.0416341
tp86
a(F1363544519.0561841
F1363544519.556365
tp87
a(F1363544519.5563819
F1363544520.078156
tp88
a(F1363544520.056824
F1363544520.5280659
tp89
a(F1363544520.5571711
F1363544521.0560679
tp90
a(F1363544521.058161
F1363544521.550808
tp91
a(F1363544521.559129
F1363544522.094651
tp92
a(F1363544522.059304
F1363544522.5803859
tp93
a(F1363544522.5593481
F1363544523.0483561
tp94
a(F1363544523.060833
F1363544523.5660529
tp95
a(F1363544523.5611689
F1363544524.055162
tp96
a(F1363544524.061419
F1363544524.5776529
tp97
a(F1363544524.5615361
F1363544525.08584
tp98
a(F1363544525.0617499
F1363544525.5495579
tp99
a(F1363544525.562036
F1363544526.0910311
tp100
a(F1363544526.0623839
F1363544526.5737
tp101
a(F1363544526.562454
F1363544527.0519531
tp102
a(F1363544527.0644331
F1363544527.5692849
tp103
a(F1363544527.564707
F1363544528.0598831
tp104
a(F1363544528.0661321
F1363544528.584187
tp105
a(F1363544528.5664101
F1363544529.0712171
tp106
a(F1363544529.0667219
F1363544529.5463979
tp107
a(F1363544529.5671821
F1363544530.0743761
tp108
a(F1363544530.067235
F1363544530.6199479
tp109
a(F1363544530.5672519
F1363544531.083081
tp110
a(F1363544531.0673201
F1363544531.600497
tp111
a(F1363544531.5673909
F1363544532.0577919
tp112
a(F1363544532.068213
F1363544532.572731
tp113
a(F1363544532.5684409
F1363544533.0628591
tp114
a(F1363544533.0691061
F1363544533.547508
tp115
a(F1363544533.5703671
F1363544534.0841489
tp116
a(F1363544534.0705731
F1363544534.5568781
tp117
a(F1363544534.571429
F1363544535.0816171
tp118
a(F1363544535.0717039
F1363544535.55353
tp119
a(F1363544535.572237
F1363544536.087492
tp120
a(F1363544536.0723121
F1363544536.5816669
tp121
a(F1363544536.5724931
F1363544537.051152
tp122
a(F1363544537.074008
F1363544537.538507
tp123
a(F1363544537.5759001
F1363544538.0844381
tp124
a(F1363544538.0760369
F1363544538.5476699
tp125
a(F1363544538.576755
F1363544539.0887189
tp126
a(F1363544539.0770011
F1363544539.5785091
tp127
a(F1363544539.5770121
F1363544540.0573561
tp128
a(F1363544540.078136
F1363544540.5955961
tp129
a(F1363544540.578306
F1363544541.0861681
tp130
a(F1363544541.0783441
F1363544541.6017361
tp131
a(F1363544541.578481
F1363544542.0786669
tp132
a(F1363544542.0786991
F1363544542.562418
tp133
a(F1363544542.5790541
F1363544543.0979371
tp134
a(F1363544543.079061
F1363544543.612442
tp135
a(F1363544543.5790679
F1363544544.0765791
tp136
a(F1363544544.080749
F1363544544.5661671
tp137
a(F1363544544.582799
F1363544545.1118701
tp138
a(F1363544545.0828121
F1363544545.606842
tp139
a(F1363544545.582953
F1363544546.0603769
tp140
a(F1363544546.083235
F1363544546.583658
tp141
a(F1363544546.5832369
F1363544547.0873761
tp142
a(F1363544547.08338
F1363544547.594804
tp143
a(F1363544547.583384
F1363544548.066823
tp144
a(F1363544548.083457
F1363544548.567826
tp145
a(F1363544548.5844541
F1363544549.0982859
tp146
a(F1363544549.0844629
F1363544549.569123
tp147
a(F1363544549.585763
F1363544550.098772
tp148
a(F1363544550.0859821
F1363544550.5637431
tp149
a(F1363544550.586611
F1363544551.0670459
tp150
a(F1363544551.0878229
F1363544551.5843329
tp151
a(F1363544551.588506
F1363544552.06394
tp152
a(F1363544552.0888829
F1363544552.6313529
tp153
a(F1363544552.5888879
F1363544553.079551
tp154
a(F1363544553.0899551
F1363544553.6080849
tp155
a(F1363544553.590076
F1363544554.0897801
tp156
a(F1363544554.091877
F1363544554.6087461
tp157
a(F1363544554.5921609
F1363544555.12097
tp158
a(F1363544555.0921941
F1363544555.6336069
tp159
a(F1363544555.59235
F1363544556.100508
tp160
a(F1363544556.0924649
F1363544556.571032
tp161
a(F1363544556.59389
F1363544557.1247611
tp162
a(F1363544557.093909
F1363544557.5750101
tp163
a(F1363544557.5957899
F1363544558.097791
tp164
a(F1363544558.096025
F1363544558.6058459
tp165
a(F1363544558.59653
F1363544559.079634
tp166
a(F1363544559.098345
F1363544559.608716
tp167
a(F1363544559.5987811
F1363544560.0983341
tp168
a(F1363544560.100431
F1363544560.5899291
tp169
a(F1363544560.6024079
F1363544561.120316
tp170
a(F1363544561.102668
F1363544561.6116509
tp171
a(F1363544561.602983
F1363544562.0954821
tp172
a(F1363544562.1038151
F1363544562.5694959
tp173
a(F1363544562.604816
F1363544563.1124611
tp174
a(F1363544563.1049609
F1363544563.5838759
tp175
a(F1363544563.606739
F1363544564.1189301
tp176
a(F1363544564.1067619
F1363544564.611151
tp177
a(F1363544564.6069219
F1363544565.086817
tp178
a(F1363544565.1076169
F1363544565.6196001
tp179
a(F1363544565.607836
F1363544566.091929
tp180
a(F1363544566.1085579
F1363544566.656666
tp181
a(F1363544566.6088879
F1363544567.1189239
tp182
a(F1363544567.1091599
F1363544567.628011
tp183
a(F1363544567.609206
F1363544568.094239
tp184
a(F1363544568.1108689
F1363544568.5898831
tp185
a(F1363544568.612745
F1363544569.1191039
tp186
a(F1363544569.112957
F1363544569.611809
tp187
a(F1363544569.6139021
F1363544570.1390071
tp188
a(F1363544570.114094
F1363544570.610822
tp189
a(F1363544570.6149909
F1363544571.105782
tp190
a(F1363544571.116184
F1363544571.6274171
tp191
a(F1363544571.6165559
F1363544572.1120231
tp192
a(F1363544572.118274
F1363544572.593616
tp193
a(F1363544572.6185529
F1363544573.1493931
tp194
a(F1363544573.1186321
F1363544573.5996909
tp195
a(F1363544573.620472
F1363544574.1337869
tp196
a(F1363544574.120517
F1363544574.602217
tp197
a(F1363544574.620923
F1363544575.1318381
tp198
a(F1363544575.121033
F1363544575.6182871
tp199
a(F1363544575.622463
F1363544576.1219299
tp200
a(F1363544576.1240251
F1363544576.63468
tp201
a(F1363544576.6242199
F1363544577.1382589
tp202
a(F1363544577.1245279
F1363544577.6049869
tp203
a(F1363544577.6257679
F1363544578.1353779
tp204
a(F1363544578.126096
F1363544578.6406381
tp205
a(F1363544578.626157
F1363544579.1610999
tp206
a(F1363544579.126157
F1363544579.638787
tp207
a(F1363544579.626529
F1363544580.14709
tp208
a(F1363544580.1266761
F1363544580.6076541
tp209
a(F1363544580.628437
F1363544581.13831
tp210
a(F1363544581.1286891
F1363544581.640686
tp211
a(F1363544581.629072
F1363544582.152436
tp212
a(F1363544582.1292419
F1363544582.645128
tp213
a(F1363544582.629292
F1363544583.1352351
tp214
a(F1363544583.1293421
F1363544583.6367359
tp215
a(F1363544583.629457
F1363544584.144285
tp216
a(F1363544584.1295431
F1363544584.6254921
tp217
a(F1363544584.6296721
F1363544585.1059451
tp218
a(F1363544585.1308811
F1363544585.640954
tp219
a(F1363544585.6312599
F1363544586.218838
tp220
a(F1363544586.1315131
F1363544586.665534
tp221
a(F1363544586.631532
F1363544587.111938
tp222
a(F1363544587.1327209
F1363544587.6576469
tp223
a(F1363544587.6328349
F1363544588.1299689
tp224
a(F1363544588.134146
F1363544588.679266
tp225
a(F1363544588.6342809
F1363544589.1328139
tp226
a(F1363544589.1349061
F1363544589.6367021
tp227
a(F1363544589.6350949
F1363544590.158896
tp228
a(F1363544590.1354539
F1363544590.635437
tp229
a(F1363544590.637527
F1363544591.1220591
tp230
a(F1363544591.138696
F1363544591.641628
tp231
a(F1363544591.6388509
F1363544592.142729
tp232
a(F1363544592.13885
F1363544592.657068
tp233
a(F1363544592.639045
F1363544593.1438749
tp234
a(F1363544593.1391449
F1363544593.614352
tp235
a(F1363544593.639298
F1363544594.16205
tp236
a(F1363544594.1395509
F1363544594.6399059
tp237
a(F1363544594.6396921
F1363544595.1195879
tp238
a(F1363544595.1403699
F1363544595.6539259
tp239
a(F1363544595.6404099
F1363544596.1525061
tp240
a(F1363544596.140667
F1363544596.6891329
tp241
a(F1363544596.6408319
F1363544597.133636
tp242
a(F1363544597.1419671
F1363544597.6582699
tp243
a(F1363544597.642071
F1363544598.141227
tp244
a(F1363544598.1433289
F1363544598.6171119
tp245
a(F1363544598.6441209
F1363544599.1565919
tp246
a(F1363544599.144208
F1363544599.6476281
tp247
a(F1363544599.6444941
F1363544600.1745541
tp248
a(F1363544600.1446569
F1363544600.6594329
tp249
a(F1363544600.6448989
F1363544601.1334479
tp250
a(F1363544601.1459301
F1363544601.6613791
tp251
a(F1363544601.645962
F1363544602.1538899
tp252
a(F1363544602.146229
F1363544602.6389611
tp253
a(F1363544602.6473031
F1363544603.178473
tp254
a(F1363544603.1473529
F1363544603.6603251
tp255
a(F1363544603.647382
F1363544604.1674371
tp256
a(F1363544604.1473939
F1363544604.6261361
tp257
a(F1363544604.648994
F1363544605.1602261
tp258
a(F1363544605.1491621
F1363544605.6441259
tp259
a(F1363544605.6503839
F1363544606.1762271
tp260
a(F1363544606.1504581
F1363544606.685647
tp261
a(F1363544606.6505589
F1363544607.15043
tp262
a(F1363544607.152528
F1363544607.6615641
tp263
a(F1363544607.652925
F1363544608.177603
tp264
a(F1363544608.153029
F1363544608.6722691
tp265
a(F1363544608.6532459
F1363544609.1733871
tp266
a(F1363544609.1533489
F1363544609.6630969
tp267
a(F1363544609.653579
F1363544610.166888
tp268
a(F1363544610.1536779
F1363544610.681778
tp269
a(F1363544610.6538081
F1363544611.1250191
tp270
a(F1363544611.154108
F1363544611.6555369
tp271
a(F1363544611.6542859
F1363544612.169241
tp272
a(F1363544612.1545169
F1363544612.688884
tp273
a(F1363544612.6546021
F1363544613.161078
tp274
a(F1363544613.1550081
F1363544613.646276
tp275
a(F1363544613.656688
F1363544614.1666639
tp276
a(F1363544614.1567259
F1363544614.648478
tp277
a(F1363544614.6568029
F1363544615.1349959
tp278
a(F1363544615.157851
F1363544615.642272
tp279
a(F1363544615.658915
F1363544616.1783521
tp280
a(F1363544616.1590509
F1363544616.663687
tp281
a(F1363544616.659095
F1363544617.123596
tp282
a(F1363544617.1610031
F1363544617.6874051
tp283
a(F1363544617.6610761
F1363544618.1419051
tp284
a(F1363544618.162694
F1363544618.6765759
tp285
a(F1363544618.6627879
F1363544619.1903031
tp286
a(F1363544619.162904
F1363544619.6376729
tp287
a(F1363544619.664696
F1363544620.1721251
tp288
a(F1363544620.164717
F1363544620.6694379
tp289
a(F1363544620.6647501
F1363544621.1914501
tp290
a(F1363544621.1650491
F1363544621.673064
tp291
a(F1363544621.6652629
F1363544622.1959901
tp292
a(F1363544622.165292
F1363544622.674268
tp293
a(F1363544622.66541
F1363544623.1506691
tp294
a(F1363544623.1673019
F1363544623.690393
tp295
a(F1363544623.667316
F1363544624.167279
tp296
a(F1363544624.1693709
F1363544624.6505289
tp297
a(F1363544624.671314
F1363544625.1615319
tp298
a(F1363544625.1719401
F1363544625.661273
tp299
a(F1363544625.6737499
F1363544626.196548
tp300
a(F1363544626.1737931
F1363544626.6884339
tp301
a(F1363544626.6738901
F1363544627.155273
tp302
a(F1363544627.1739731
F1363544627.6636291
tp303
a(F1363544627.6740341
F1363544628.1529641
tp304
a(F1363544628.175823
F1363544628.674968
tp305
a(F1363544628.677063
F1363544629.1743469
tp306
a(F1363544629.1785231
F1363544629.694464
tp307
a(F1363544629.678669
F1363544630.1744859
tp308
a(F1363544630.1807351
F1363544630.6636391
tp309
a(F1363544630.6823609
F1363544631.17417
tp310
a(F1363544631.1824961
F1363544631.6822641
tp311
a(F1363544631.684361
F1363544632.210587
tp312
a(F1363544632.1844251
F1363544632.711231
tp313
a(F1363544632.6846809
F1363544633.1670899
tp314
a(F1363544633.1857929
F1363544633.681839
tp315
a(F1363544633.6860089
F1363544634.1827841
tp316
a(F1363544634.1869559
F1363544634.7138541
tp317
a(F1363544634.687279
F1363544635.1778121
tp318
a(F1363544635.1882169
F1363544635.7018571
tp319
a(F1363544635.6884661
F1363544636.1889541
tp320
a(F1363544636.18876
F1363544636.6874781
tp321
a(F1363544636.689574
F1363544637.1772349
tp322
a(F1363544637.1897161
F1363544637.6949351
tp323
a(F1363544637.6899669
F1363544638.1800001
tp324
a(F1363544638.1904011
F1363544638.6729469
tp325
a(F1363544638.691659
F1363544639.202364
tp326
a(F1363544639.1920741
F1363544639.6676731
tp327
a(F1363544639.692611
F1363544640.190762
tp328
a(F1363544640.192852
F1363544640.704824
tp329
a(F1363544640.6929059
F1363544641.2084939
tp330
a(F1363544641.19312
F1363544641.724447
tp331
a(F1363544641.693238
F1363544642.179425
tp332
a(F1363544642.1939771
F1363544642.715333
tp333
a(F1363544642.694077
F1363544643.2040019
tp334
a(F1363544643.194114
F1363544643.6655879
tp335
a(F1363544643.6946759
F1363544644.211906
tp336
a(F1363544644.194803
F1363544644.700068
tp337
a(F1363544644.69488
F1363544645.1977401
tp338
a(F1363544645.1949019
F1363544645.7256789
tp339
a(F1363544645.6950879
F1363544646.1810529
tp340
a(F1363544646.1956079
F1363544646.7165051
tp341
a(F1363544646.6956899
F1363544647.203608
tp342
a(F1363544647.1956971
F1363544647.6880851
tp343
a(F1363544647.6964121
F1363544648.216918
tp344
a(F1363544648.196507
F1363544648.6847141
tp345
a(F1363544648.6971891
F1363544649.1855941
tp346
a(F1363544649.1980741
F1363544649.7073231
tp347
a(F1363544649.6981189
F1363544650.214371
tp348
a(F1363544650.1981561
F1363544650.749651
tp349
a(F1363544650.698437
F1363544651.1942649
tp350
a(F1363544651.1984429
F1363544651.6851859
tp351
a(F1363544651.6997399
F1363544652.2064121
tp352
a(F1363544652.1999381
F1363544652.716676
tp353
a(F1363544652.6999919
F1363544653.2216561
tp354
a(F1363544653.2000129
F1363544653.72873
tp355
a(F1363544653.700135
F1363544654.206007
tp356
a(F1363544654.2003019
F1363544654.6883309
tp357
a(F1363544654.7008281
F1363544655.2089441
tp358
a(F1363544655.201051
F1363544655.7148261
tp359
a(F1363544655.7013209
F1363544656.1725249
tp360
a(F1363544656.201612
F1363544656.7224669
tp361
a(F1363544656.701869
F1363544657.1868579
tp362
a(F1363544657.2035079
F1363544657.724122
tp363
a(F1363544657.703692
F1363544658.187305
tp364
a(F1363544658.2039399
F1363544658.68906
tp365
a(F1363544658.7056849
F1363544659.223767
tp366
a(F1363544659.2058511
F1363544659.71439
tp367
a(F1363544659.705972
F1363544660.178309
tp368
a(F1363544660.207402
F1363544660.722245
tp369
a(F1363544660.707505
F1363544661.205019
tp370
a(F1363544661.209188
F1363544661.7368829
tp371
a(F1363544661.7092199
F1363544662.2394919
tp372
a(F1363544662.2095349
F1363544662.698952
tp373
a(F1363544662.711437
F1363544663.23351
tp374
a(F1363544663.211899
F1363544663.732357
tp375
a(F1363544663.71193
F1363544664.2363391
tp376
a(F1363544664.212111
F1363544664.674829
tp377
a(F1363544664.712286
F1363544665.237973
tp378
a(F1363544665.212296
F1363544665.7412369
tp379
a(F1363544665.7125859
F1363544666.219259
tp380
a(F1363544666.2129371
F1363544666.7103491
tp381
a(F1363544666.7145231
F1363544667.2144611
tp382
a(F1363544667.216563
F1363544667.7352929
tp383
a(F1363544667.7167361
F1363544668.2277131
tp384
a(F1363544668.217063
F1363544668.7008181
tp385
a(F1363544668.7174439
F1363544669.222939
tp386
a(F1363544669.217711
F1363544669.7243659
tp387
a(F1363544669.7179949
F1363544670.2144859
tp388
a(F1363544670.218657
F1363544670.731818
tp389
a(F1363544670.7187231
F1363544671.2164421
tp390
a(F1363544671.220612
F1363544671.798897
tp391
a(F1363544671.7209139
F1363544672.268065
tp392
a(F1363544672.2212451
F1363544672.7394581
tp393
a(F1363544672.721446
F1363544673.2756319
tp394
a(F1363544673.221457
F1363544673.7234931
tp395
a(F1363544673.7217331
F1363544674.2302761
tp396
a(F1363544674.2219419
F1363544674.7534521
tp397
a(F1363544674.7221861
F1363544675.219861
tp398
a(F1363544675.224036
F1363544675.72242
tp399
a(F1363544675.724519
F1363544676.2232881
tp400
a(F1363544676.2253871
F1363544676.733242
tp401
a(F1363544676.7254341
F1363544677.2574339
tp402
a(F1363544677.225709
F1363544677.782238
tp403
a(F1363544677.725919
F1363544678.2371931
tp404
a(F1363544678.2263219
F1363544678.755615
tp405
a(F1363544678.726352
F1363544679.234597
tp406
a(F1363544679.2264841
F1363544679.739048
tp407
a(F1363544679.7269001
F1363544680.217097
tp408
a(F1363544680.2275119
F1363544680.747998
tp409
a(F1363544680.7278061
F1363544681.2313139
tp410
a(F1363544681.2278891
F1363544681.745729
tp411
a(F1363544681.7278941
F1363544682.282793
tp412
a(F1363544682.2283621
F1363544682.7356501
tp413
a(F1363544682.7284009
F1363544683.224987
tp414
a(F1363544683.2291639
F1363544683.758198
tp415
a(F1363544683.729188
F1363544684.2273331
tp416
a(F1363544684.229425
F1363544684.7294149
tp417
a(F1363544684.7294309
F1363544685.252919
tp418
a(F1363544685.229835
F1363544685.7461219
tp419
a(F1363544685.7298591
F1363544686.2100611
tp420
a(F1363544686.230839
F1363544686.737247
tp421
a(F1363544686.730912
F1363544687.2227881
tp422
a(F1363544687.2311051
F1363544687.746105
tp423
a(F1363544687.7312419
F1363544688.2781229
tp424
a(F1363544688.2312479
F1363544688.7394669
tp425
a(F1363544688.731277
F1363544689.2224331
tp426
a(F1363544689.232842
F1363544689.7594271
tp427
a(F1363544689.7328739
F1363544690.2590389
tp428
a(F1363544690.2330289
F1363544690.7169681
tp429
a(F1363544690.7336011
F1363544691.275141
tp430
a(F1363544691.233815
F1363544691.7327819
tp431
a(F1363544691.7348781
F1363544692.219759
tp432
a(F1363544692.236392
F1363544692.739763
tp433
a(F1363544692.7366631
F1363544693.2404411
tp434
a(F1363544693.236825
F1363544693.7674129
tp435
a(F1363544693.737051
F1363544694.2204139
tp436
a(F1363544694.239126
F1363544694.7378819
tp437
a(F1363544694.7399731
F1363544695.2612309
tp438
a(F1363544695.2400949
F1363544695.7600429
tp439
a(F1363544695.7402339
F1363544696.2505741
tp440
a(F1363544696.2402451
F1363544696.729116
tp441
a(F1363544696.7415941
F1363544697.24593
tp442
a(F1363544697.241843
F1363544697.7376339
tp443
a(F1363544697.7438819
F1363544698.2777159
tp444
a(F1363544698.244236
F1363544698.7595251
tp445
a(F1363544698.744401
F1363544699.2330279
tp446
a(F1363544699.245513
F1363544699.748137
tp447
a(F1363544699.7458069
F1363544700.23088
tp448
a(F1363544700.2475049
F1363544700.7621119
tp449
a(F1363544700.7479391
F1363544701.3112979
tp450
a(F1363544701.248245
F1363544701.7766991
tp451
a(F1363544701.748286
F1363544702.2610061
tp452
a(F1363544702.2485399
F1363544702.7492781
tp453
a(F1363544702.7486689
F1363544703.2654171
tp454
a(F1363544703.249017
F1363544703.755456
tp455
a(F1363544703.7492311
F1363544704.2282169
tp456
a(F1363544704.2510791
F1363544704.7888479
tp457
a(F1363544704.751457
F1363544705.2558379
tp458
a(F1363544705.2515099
F1363544705.7926459
tp459
a(F1363544705.751827
F1363544706.288275
tp460
a(F1363544706.2518539
F1363544706.7455831
tp461
a(F1363544706.7539079
F1363544707.2812071
tp462
a(F1363544707.254297
F1363544707.7636549
tp463
a(F1363544707.754467
F1363544708.2751889
tp464
a(F1363544708.2547929
F1363544708.7786651
tp465
a(F1363544708.7547979
F1363544709.2496171
tp466
a(F1363544709.255872
F1363544709.740104
tp467
a(F1363544709.756741
F1363544710.286092
tp468
a(F1363544710.2567861
F1363544710.760139
tp469
a(F1363544710.757031
F1363544711.2846911
tp470
a(F1363544711.257081
F1363544711.71594
tp471
a(F1363544711.7574799
F1363544712.2543869
tp472
a(F1363544712.2585609
F1363544712.7435811
tp473
a(F1363544712.7602119
F1363544713.2881191
tp474
a(F1363544713.2605181
F1363544713.7607429
tp475
a(F1363544713.7605569
F1363544714.2361121
tp476
a(F1363544714.2610409
F1363544714.7922549
tp477
a(F1363544714.7611771
F1363544715.256887
tp478
a(F1363544715.2631359
F1363544715.7940819
tp479
a(F1363544715.763175
F1363544716.2812819
tp480
a(F1363544716.263221
F1363544716.793098
tp481
a(F1363544716.7633719
F1363544717.306818
tp482
a(F1363544717.263514
F1363544717.760061
tp483
a(F1363544717.764235
F1363544718.2867351
tp484
a(F1363544718.2643981
F1363544718.7666881
tp485
a(F1363544718.764766
F1363544719.246511
tp486
a(F1363544719.265213
F1363544719.7598841
tp487
a(F1363544719.766134
F1363544720.3604181
tp488
a(F1363544720.2665541
F1363544720.809464
tp489
a(F1363544720.7667179
F1363544721.2838769
tp490
a(F1363544721.2669261
F1363544721.7795899
tp491
a(F1363544721.7670529
F1363544722.2475071
tp492
a(F1363544722.268297
F1363544722.813663
tp493
a(F1363544722.7683101
F1363544723.2654719
tp494
a(F1363544723.2696559
F1363544723.7538819
tp495
a(F1363544723.7705131
F1363544724.27929
tp496
a(F1363544724.2707579
F1363544724.7723019
tp497
a(F1363544724.770983
F1363544725.2938681
tp498
a(F1363544725.2712269
F1363544725.769768
tp499
a(F1363544725.7718611
F1363544726.2542329
tp500
a(F1363544726.2729399
F1363544726.7906549
tp501
a(F1363544726.7730899
F1363544727.3029251
tp502
a(F1363544727.273133
F1363544727.7558401
tp503
a(F1363544727.774543
F1363544728.2905779
tp504
a(F1363544728.2745831
F1363544728.769496
tp505
a(F1363544728.7757521
F1363544729.304441
tp506
a(F1363544729.276222
F1363544729.7780099
tp507
a(F1363544729.7764139
F1363544730.2538159
tp508
a(F1363544730.2767029
F1363544730.78144
tp509
a(F1363544730.776736
F1363544731.271631
tp510
a(F1363544731.277879
F1363544731.8462059
tp511
a(F1363544731.778152
F1363544732.3125679
tp512
a(F1363544732.2782259
F1363544732.7412069
tp513
a(F1363544732.7786059
F1363544733.3108339
tp514
a(F1363544733.278657
F1363544733.7814419
tp515
a(F1363544733.7790329
F1363544734.2830231
tp516
a(F1363544734.2791979
F1363544734.803721
tp517
a(F1363544734.779366
F1363544735.279763
tp518
a(F1363544735.2795711
F1363544735.817385
tp519
a(F1363544735.779937
F1363544736.2675011
tp520
a(F1363544736.2799799
F1363544736.802073
tp521
a(F1363544736.780036
F1363544737.294873
tp522
a(F1363544737.280086
F1363544737.7910421
tp523
a(F1363544737.7801349
F1363544738.2977641
tp524
a(F1363544738.280175
F1363544738.779115
tp525
a(F1363544738.781208
F1363544739.2705221
tp526
a(F1363544739.2830031
F1363544739.8000231
tp527
a(F1363544739.7833359
F1363544740.2746761
tp528
a(F1363544740.285084
F1363544740.813571
tp529
a(F1363544740.785126
F1363544741.282984
tp530
a(F1363544741.287173
F1363544741.7889991
tp531
a(F1363544741.787431
F1363544742.3077941
tp532
a(F1363544742.2877979
F1363544742.844938
tp533
a(F1363544742.7878971
F1363544743.3028121
tp534
a(F1363544743.2879291
F1363544743.781601
tp535
a(F1363544743.7899261
F1363544744.3084061
tp536
a(F1363544744.289963
F1363544744.805783
tp537
a(F1363544744.789978
F1363544745.2747581
tp538
a(F1363544745.291398
F1363544745.7989731
tp539
a(F1363544745.7914979
F1363544746.3000989
tp540
a(F1363544746.291599
F1363544746.818372
tp541
a(F1363544746.7918849
F1363544747.287461
tp542
a(F1363544747.2937219
F1363544747.779712
tp543
a(F1363544747.7942841
F1363544748.3153131
tp544
a(F1363544748.294528
F1363544748.8016441
tp545
a(F1363544748.794661
F1363544749.3064151
tp546
a(F1363544749.2948821
F1363544749.8148551
tp547
a(F1363544749.7949431
F1363544750.279139
tp548
a(F1363544750.295768
F1363544750.815886
tp549
a(F1363544750.795805
F1363544751.3006461
tp550
a(F1363544751.295944
F1363544751.8061731
tp551
a(F1363544751.796066
F1363544752.3272879
tp552
a(F1363544752.2960811
F1363544752.802072
tp553
a(F1363544752.796293
F1363544753.279001
tp554
a(F1363544753.2977221
F1363544753.8035109
tp555
a(F1363544753.797998
F1363544754.2993741
tp556
a(F1363544754.2981949
F1363544754.817291
tp557
a(F1363544754.7982399
F1363544755.3070531
tp558
a(F1363544755.2985401
F1363544755.7852449
tp559
a(F1363544755.799803
F1363544756.3446131
tp560
a(F1363544756.299814
F1363544756.812412
tp561
a(F1363544756.8001609
F1363544757.2851551
tp562
a(F1363544757.301801
F1363544757.8117881
tp563
a(F1363544757.801995
F1363544758.29985
tp564
a(F1363544758.304029
F1363544758.82989
tp565
a(F1363544758.8041191
F1363544759.308908
tp566
a(F1363544759.3041689
F1363544759.810545
tp567
a(F1363544759.8044159
F1363544760.3259859
tp568
a(F1363544760.3045361
F1363544760.7880361
tp569
a(F1363544760.804662
F1363544761.3130651
tp570
a(F1363544761.3049459
F1363544761.806282
tp571
a(F1363544761.80497
F1363544762.3334429
tp572
a(F1363544762.305011
F1363544762.8089311
tp573
a(F1363544762.8050179
F1363544763.295712
tp574
a(F1363544763.3061149
F1363544763.804347
tp575
a(F1363544763.806443
F1363544764.3072281
tp576
a(F1363544764.3064661
F1363544764.8371069
tp577
a(F1363544764.8065851
F1363544765.3114591
tp578
a(F1363544765.3066499
F1363544765.862947
tp579
a(F1363544765.806695
F1363544766.319443
tp580
a(F1363544766.3067019
F1363544766.820214
tp581
a(F1363544766.8067279
F1363544767.319226
tp582
a(F1363544767.3068349
F1363544767.8455541
tp583
a(F1363544767.8069401
F1363544768.310492
tp584
a(F1363544768.3072629
F1363544768.797857
tp585
a(F1363544768.808259
F1363544769.3301721
tp586
a(F1363544769.3084331
F1363544769.794018
tp587
a(F1363544769.8085699
F1363544770.293138
tp588
a(F1363544770.3097689
F1363544770.8330951
tp589
a(F1363544770.8098819
F1363544771.349133
tp590
a(F1363544771.310101
F1363544771.8588729
tp591
a(F1363544771.810113
F1363544772.373642
tp592
a(F1363544772.3103819
F1363544772.8341899
tp593
a(F1363544772.8106041
F1363544773.3040481
tp594
a(F1363544773.3123801
F1363544773.824825
tp595
a(F1363544773.812448
F1363544774.3153811
tp596
a(F1363544774.3127091
F1363544774.8142321
tp597
a(F1363544774.812721
F1363544775.3442571
tp598
a(F1363544775.3127899
F1363544775.814321
tp599
a(F1363544775.813009
F1363544776.332839
tp600
a(F1363544776.313201
F1363544776.8428969
tp601
a(F1363544776.813592
F1363544777.29269
tp602
a(F1363544777.315536
F1363544777.8584099
tp603
a(F1363544777.8158441
F1363544778.3670361
tp604
a(F1363544778.3158629
F1363544778.8190501
tp605
a(F1363544778.8160191
F1363544779.3490641
tp606
a(F1363544779.3160951
F1363544779.9218709
tp607
a(F1363544779.8162651
F1363544780.3742421
tp608
a(F1363544780.3164799
F1363544780.81739
tp609
a(F1363544780.8165829
F1363544781.337235
tp610
a(F1363544781.316818
F1363544781.8446369
tp611
a(F1363544781.8171721
F1363544782.3039169
tp612
a(F1363544782.31848
F1363544782.8220551
tp613
a(F1363544782.8186231
F1363544783.3206899
tp614
a(F1363544783.3188541
F1363544783.9052141
tp615
a(F1363544783.819227
F1363544784.3542659
tp616
a(F1363544784.3195119
F1363544784.835815
tp617
a(F1363544784.8195119
F1363544785.3156281
tp618
a(F1363544785.3198011
F1363544785.799032
tp619
a(F1363544785.819814
F1363544786.341269
tp620
a(F1363544786.3200941
F1363544786.845011
tp621
a(F1363544786.8202929
F1363544787.368664
tp622
a(F1363544787.3205769
F1363544787.8324611
tp623
a(F1363544787.820596
F1363544788.3062301
tp624
a(F1363544788.3207891
F1363544788.833087
tp625
a(F1363544788.821156
F1363544789.31304
tp626
a(F1363544789.3213689
F1363544789.8703711
tp627
a(F1363544789.8215539
F1363544790.3290241
tp628
a(F1363544790.321593
F1363544790.844914
tp629
a(F1363544790.8219481
F1363544791.3505509
tp630
a(F1363544791.3219459
F1363544791.81568
tp631
a(F1363544791.8240049
F1363544792.310535
tp632
a(F1363544792.3250909
F1363544792.8376751
tp633
a(F1363544792.8250999
F1363544793.3337541
tp634
a(F1363544793.325289
F1363544793.860532
tp635
a(F1363544793.82549
F1363544794.3323629
tp636
a(F1363544794.3255651
F1363544794.8122301
tp637
a(F1363544794.8267851
F1363544795.348932
tp638
a(F1363544795.3268659
F1363544795.964112
tp639
a(F1363544795.827204
F1363544796.3938639
tp640
a(F1363544796.327219
F1363544796.846936
tp641
a(F1363544796.8272591
F1363544797.3504629
tp642
a(F1363544797.327301
F1363544797.8148141
tp643
a(F1363544797.8293631
F1363544798.309912
tp644
a(F1363544798.3306999
F1363544798.8295081
tp645
a(F1363544798.831599
F1363544799.3339479
tp646
a(F1363544799.3316801
F1363544799.8548579
tp647
a(F1363544799.831706
F1363544800.365689
tp648
a(F1363544800.3319249
F1363544800.8227999
tp649
a(F1363544800.833204
F1363544801.353029
tp650
a(F1363544801.3332591
Ntp651
a(F1363544801.8344719
F1363544802.342731
tp652
a(F1363544802.3346081
F1363544802.82234
tp653
a(F1363544802.834826
F1363544803.3722949
tp654
a(F1363544803.334955
F1363544803.840018
tp655
a(F1363544803.835017
F1363544804.3387411
tp656
a(F1363544804.335479
F1363544804.8732519
tp657
a(F1363544804.835495
F1363544805.3202469
tp658
a(F1363544805.336884
F1363544805.8680761
tp659
a(F1363544805.8369141
F1363544806.357944
tp660
a(F1363544806.3369291
F1363544806.8290329
tp661
a(F1363544806.8373549
F1363544807.3495851
tp662
a(F1363544807.3374231
F1363544807.9843659
tp663
a(F1363544807.8376291
F1363544808.4231391
tp664
a(F1363544808.337852
F1363544808.870048
tp665
a(F1363544808.8379149
F1363544809.342097
tp666
a(F1363544809.3380461
F1363544809.868458
tp667
a(F1363544809.8381341
F1363544810.3790569
tp668
a(F1363544810.338196
F1363544810.8680291
tp669
a(F1363544810.838414
F1363544811.3499019
tp670
a(F1363544811.3385839
F1363544811.8354959
tp671
a(F1363544811.8396771
F1363544812.359304
tp672
a(F1363544812.3398609
F1363544812.8537371
tp673
a(F1363544812.8399961
F1363544813.3204031
tp674
a(F1363544813.341172
F1363544813.9764371
tp675
a(F1363544813.8411851
F1363544814.425571
tp676
a(F1363544814.3416331
F1363544814.8842521
tp677
a(F1363544814.8418739
F1363544815.369483
tp678
a(F1363544815.3419311
F1363544815.850044
tp679
a(F1363544815.8424239
F1363544816.35129
tp680
a(F1363544816.342469
F1363544816.8519809
tp681
a(F1363544816.842509
F1363544817.3938539
tp682
a(F1363544817.342818
F1363544817.845633
tp683
a(F1363544817.8428421
F1363544818.3264091
tp684
a(F1363544818.343045
F1363544818.8854909
tp685
a(F1363544818.84322
F1363544819.3335559
tp686
a(F1363544819.343972
F1363544819.9929121
tp687
a(F1363544819.84413
F1363544820.45258
tp688
a(F1363544820.3442521
F1363544820.892822
tp689
a(F1363544820.84427
F1363544821.3499529
tp690
a(F1363544821.344696
F1363544821.838685
tp691
a(F1363544821.8449321
F1363544822.3615839
tp692
a(F1363544822.344996
F1363544822.8520031
tp693
a(F1363544822.8450911
F1363544823.3404779
tp694
a(F1363544823.3467309
F1363544823.8652771
tp695
a(F1363544823.846884
F1363544824.353018
tp696
a(F1363544824.347187
F1363544824.830997
tp697
a(F1363544824.847631
F1363544825.3637691
tp698
a(F1363544825.3478129
F1363544826.019522
tp699
a(F1363544825.847996
F1363544826.4639339
tp700
a(F1363544826.348156
F1363544826.9114461
tp701
a(F1363544826.8482151
F1363544827.3938799
tp702
a(F1363544827.348269
F1363544827.8401489
tp703
a(F1363544827.848474
F1363544828.4033501
tp704
a(F1363544828.348515
F1363544828.858743
tp705
a(F1363544828.848778
F1363544829.3435271
tp706
a(F1363544829.3497729
F1363544829.8717289
tp707
a(F1363544829.85006
F1363544830.3752899
tp708
a(F1363544830.350188
F1363544830.835011
tp709
a(F1363544830.85164
F1363544831.3591819
tp710
a(F1363544831.3516691
F1363544832.0557361
tp711
a(F1363544831.8517931
F1363544832.5110159
tp712
a(F1363544832.351928
F1363544832.9450729
tp713
a(F1363544832.8523641
F1363544833.3888199
tp714
a(F1363544833.3523841
F1363544833.867624
tp715
a(F1363544833.85254
F1363544834.4024839
tp716
a(F1363544834.3526411
F1363544834.8661759
tp717
a(F1363544834.852973
F1363544835.360389
tp718
a(F1363544835.3531439
F1363544835.8418989
tp719
a(F1363544835.8543849
F1363544836.3801069
tp720
a(F1363544836.3548081
F1363544836.8506341
tp721
a(F1363544836.854815
F1363544837.342536
tp722
a(F1363544837.35502
F1363544838.0124731
tp723
a(F1363544837.8550961
F1363544838.4595821
tp724
a(F1363544838.3552461
F1363544838.9097011
tp725
a(F1363544838.855545
F1363544839.37992
tp726
a(F1363544839.355623
F1363544839.914814
tp727
a(F1363544839.855716
F1363544840.3698151
tp728
a(F1363544840.3559361
F1363544840.8457661
tp729
a(F1363544840.856168
F1363544841.392117
tp730
a(F1363544841.3562729
F1363544841.863101
tp731
a(F1363544841.85638
F1363544842.3712831
tp732
a(F1363544842.3564451
F1363544842.9025209
tp733
a(F1363544842.856698
F1363544843.3641059
tp734
a(F1363544843.3570049
F1363544844.0524981
tp735
a(F1363544843.8572669
F1363544844.4661629
tp736
a(F1363544844.3573411
F1363544844.9261141
tp737
a(F1363544844.857465
F1363544845.3889811
tp738
a(F1363544845.3576281
F1363544845.879194
tp739
a(F1363544845.8579209
F1363544846.4007959
tp740
a(F1363544846.3580661
F1363544846.866225
tp741
a(F1363544846.8581469
F1363544847.368808
tp742
a(F1363544847.358407
F1363544847.8919849
tp743
a(F1363544847.8586769
F1363544848.3543041
tp744
a(F1363544848.3605521
F1363544848.839731
tp745
a(F1363544848.8626039
F1363544849.3814249
tp746
a(F1363544849.3627391
F1363544850.0978761
tp747
a(F1363544849.862896
F1363544850.5260739
tp748
a(F1363544850.3629279
F1363544850.9774129
tp749
a(F1363544850.86303
F1363544851.4329281
tp750
a(F1363544851.36338
F1363544851.929354
tp751
a(F1363544851.8634479
F1363544852.39147
tp752
a(F1363544852.3634641
F1363544852.843082
tp753
a(F1363544852.863868
F1363544853.3629019
tp754
a(F1363544853.365
F1363544853.8709121
tp755
a(F1363544853.8650999
F1363544854.404649
tp756
a(F1363544854.3652411
F1363544854.8731451
tp757
a(F1363544854.8653851
F1363544855.365869
tp758
a(F1363544855.3656609
F1363544856.1438179
tp759
a(F1363544856.366353
Ntp760
a(F1363544855.865952
F1363544856.531831
tp761
a(F1363544856.86815
F1363544857.3764701
tp762
a(F1363544857.3683579
F1363544857.8507731
tp763
a(F1363544857.869483
F1363544858.3972471
tp764
a(F1363544858.3696611
F1363544858.882127
tp765
a(F1363544858.8699
F1363544859.3543251
tp766
a(F1363544859.3709719
F1363544859.8694739
tp767
a(F1363544859.871568
F1363544860.35692
tp768
a(F1363544860.373554
F1363544860.943177
tp769
a(F1363544860.873821
F1363544861.3952999
tp770
a(F1363544861.374238
F1363544862.1243961
tp771
a(F1363544861.874368
F1363544862.5299871
tp772
a(F1363544862.374521
F1363544862.9587121
tp773
a(F1363544862.8745461
F1363544863.4337511
tp774
a(F1363544863.3746829
F1363544863.899931
tp775
a(F1363544863.875035
F1363544864.3895531
tp776
a(F1363544864.3750961
F1363544864.868336
tp777
a(F1363544864.8766639
F1363544865.406513
tp778
a(F1363544865.3768449
F1363544865.895272
tp779
a(F1363544865.877223
F1363544866.3610229
tp780
a(F1363544866.3776569
Ntp781
a(F1363544866.877955
F1363544867.388536
tp782
a(F1363544867.378412
F1363544868.1903889
tp783
a(F1363544867.878433
F1363544868.5728719
tp784
a(F1363544868.378499
F1363544869.021924
tp785
a(F1363544868.8786609
F1363544869.4457099
tp786
a(F1363544869.37871
F1363544869.9724741
tp787
a(F1363544869.879123
F1363544870.430876
tp788
a(F1363544870.3791721
F1363544870.8956499
tp789
a(F1363544870.87955
F1363544871.372391
tp790
a(F1363544871.380717
F1363544871.943465
tp791
a(F1363544871.8808601
F1363544872.393898
tp792
a(F1363544872.381114
F1363544872.8529351
tp793
a(F1363544872.88203
F1363544873.399524
tp794
a(F1363544873.3820591
F1363544874.078496
tp795
a(F1363544873.8821371
F1363544874.5440719
tp796
a(F1363544874.382175
F1363544874.9931331
tp797
a(F1363544874.88218
F1363544875.4121561
tp798
a(F1363544875.3823259
F1363544875.995018
tp799
a(F1363544875.88241
F1363544876.4651999
tp800
a(F1363544876.3826039
F1363544876.9201241
tp801
a(F1363544876.882623
F1363544877.391372
tp802
a(F1363544877.3827889
F1363544877.977319
tp803
a(F1363544877.883059
F1363544878.4186561
tp804
a(F1363544878.3834879
F1363544878.854974
tp805
a(F1363544878.884059
F1363544879.3994679
tp806
a(F1363544879.384706
F1363544880.1652851
tp807
a(F1363544879.884912
F1363544880.5972769
tp808
a(F1363544880.3850861
F1363544881.0205929
tp809
a(F1363544880.8850961
F1363544881.4991851
tp810
a(F1363544881.385288
F1363544881.9521821
tp811
a(F1363544881.885304
F1363544882.428159
tp812
a(F1363544882.3853409
F1363544882.8999469
tp813
a(F1363544882.8853979
F1363544883.4006729
tp814
a(F1363544883.3855791
F1363544883.9494801
tp815
a(F1363544883.88569
F1363544884.3902581
tp816
a(F1363544884.385761
F1363544884.894176
tp817
a(F1363544884.8859849
F1363544885.3863831
tp818
a(F1363544885.3860769
F1363544886.170249
tp819
a(F1363544886.386441
Ntp820
a(F1363544885.8863361
F1363544886.562814
tp821
a(F1363544886.886713
F1363544887.4378221
tp822
a(F1363544887.3870001
F1363544887.897589
tp823
a(F1363544887.887038
F1363544888.3895321
tp824
a(F1363544888.3871119
F1363544888.985296
tp825
a(F1363544888.8871839
F1363544889.449096
tp826
a(F1363544889.387275
F1363544889.9080601
tp827
a(F1363544889.887486
F1363544890.376704
tp828
a(F1363544890.389194
F1363544890.96224
tp829
a(F1363544890.8892629
F1363544891.4411349
tp830
a(F1363544891.3895171
F1363544892.1392169
tp831
a(F1363544891.8897221
F1363544892.5361531
tp832
a(F1363544892.3897631
F1363544893.0162981
tp833
a(F1363544892.8899231
F1363544893.478853
tp834
a(F1363544893.390017
F1363544893.9230659
tp835
a(F1363544893.8901701
F1363544894.403652
tp836
a(F1363544894.390527
F1363544894.9349661
tp837
a(F1363544894.8909371
F1363544895.3990791
tp838
a(F1363544895.3910999
F1363544895.9555471
tp839
a(F1363544895.8912051
F1363544896.430073
tp840
a(F1363544896.391233
F1363544896.9964311
tp841
a(F1363544896.891495
F1363544897.4512801
tp842
a(F1363544897.3918159
F1363544898.1661251
tp843
a(F1363544897.8918409
F1363544898.548223
tp844
a(F1363544898.3922379
F1363544898.99791
tp845
a(F1363544898.892282
F1363544899.4467599
tp846
a(F1363544899.392282
F1363544899.913991
tp847
a(F1363544899.8924451
F1363544900.407057
tp848
a(F1363544900.3926361
F1363544900.890377
tp849
a(F1363544900.8945489
F1363544901.3965399
tp850
a(F1363544901.3947189
Ntp851
a(F1363544901.8960049
F1363544902.479497
tp852
a(F1363544902.396167
F1363544902.9324901
tp853
a(F1363544902.896384
F1363544903.4215491
tp854
a(F1363544903.3964679
F1363544904.2162271
tp855
a(F1363544903.8964961
F1363544904.6258941
tp856
a(F1363544904.3967149
F1363544905.0694921
tp857
a(F1363544904.8968439
F1363544905.483371
tp858
a(F1363544905.3969171
F1363544905.9657209
tp859
a(F1363544905.8971961
F1363544906.432224
tp860
a(F1363544906.3972299
F1363544906.988131
tp861
a(F1363544906.8972459
F1363544907.4584081
tp862
a(F1363544907.397377
F1363544907.9153869
tp863
a(F1363544907.8977849
F1363544908.426831
tp864
a(F1363544908.3979869
F1363544908.9888921
tp865
a(F1363544908.8980401
F1363544909.4436121
tp866
a(F1363544909.3981121
F1363544910.188117
tp867
a(F1363544909.898145
F1363544910.5992539
tp868
a(F1363544910.3981581
F1363544911.0058761
tp869
a(F1363544910.8983221
F1363544911.459919
tp870
a(F1363544911.398356
Ntp871
a(F1363544911.9000809
F1363544912.403281
tp872
a(F1363544912.4001789
F1363544912.8645611
tp873
a(F1363544912.9019549
F1363544913.4214799
tp874
a(F1363544913.402164
F1363544913.9384971
tp875
a(F1363544913.902647
F1363544914.417063
tp876
a(F1363544914.4031601
F1363544914.956399
tp877
a(F1363544914.903549
F1363544915.4161849
tp878
a(F1363544915.403626
F1363544916.197242
tp879
a(F1363544916.403867
Ntp880
a(F1363544915.903687
F1363544916.58553
tp881
a(F1363544916.905304
F1363544917.439996
tp882
a(F1363544917.4053979
F1363544918.0100441
tp883
a(F1363544917.905586
F1363544918.4518039
tp884
a(F1363544918.4056921
F1363544918.903837
tp885
a(F1363544918.9059291
F1363544919.417655
tp886
a(F1363544919.4060349
F1363544919.9626429
tp887
a(F1363544919.9062979
F1363544920.4123671
tp888
a(F1363544920.406368
F1363544920.904268
tp889
a(F1363544920.908433
F1363544921.4282191
tp890
a(F1363544921.4088371
F1363544922.2767341
tp891
a(F1363544921.909014
F1363544922.6283569
tp892
a(F1363544922.4090431
F1363544923.0733969
tp893
a(F1363544922.909246
F1363544923.513989
tp894
a(F1363544923.4095931
F1363544923.9811561
tp895
a(F1363544923.9097159
F1363544924.442579
tp896
a(F1363544924.4097199
F1363544924.940347
tp897
a(F1363544924.9097891
F1363544925.433167
tp898
a(F1363544925.4101601
F1363544925.9489081
tp899
a(F1363544925.910424
F1363544926.424624
tp900
a(F1363544926.4107349
Ntp901
a(F1363544926.911186
F1363544927.48469
tp902
a(F1363544927.411227
F1363544928.3098979
tp903
a(F1363544927.9113719
F1363544928.693486
tp904
a(F1363544928.4115789
F1363544929.1385469
tp905
a(F1363544928.911607
F1363544929.540751
tp906
a(F1363544929.411727
F1363544930.014415
tp907
a(F1363544929.9117739
F1363544930.4832461
tp908
a(F1363544930.4121261
F1363544930.9474871
tp909
a(F1363544930.912183
F1363544931.449682
tp910
a(F1363544931.412257
Ntp911
a(F1363544931.913379
F1363544932.448458
tp912
a(F1363544932.413697
F1363544932.9781439
tp913
a(F1363544932.9142089
F1363544933.436455
tp914
a(F1363544933.4144311
F1363544934.3740439
tp915
a(F1363544933.9145551
F1363544934.7494659
tp916
a(F1363544934.4148369
F1363544935.1406169
tp917
a(F1363544934.9149809
F1363544935.575886
tp918
a(F1363544935.415055
F1363544936.0656581
tp919
a(F1363544935.9153459
F1363544936.5134981
tp920
a(F1363544936.4154639
F1363544936.982585
tp921
a(F1363544936.915545
F1363544937.436888
tp922
a(F1363544937.415627
F1363544937.9483011
tp923
a(F1363544937.91589
F1363544938.4939549
tp924
a(F1363544938.4159679
F1363544938.9528739
tp925
a(F1363544938.916075
F1363544939.4172349
tp926
a(F1363544939.416096
F1363544940.4239819
tp927
a(F1363544939.9163041
F1363544940.7769001
tp928
a(F1363544940.4166901
F1363544941.176904
tp929
a(F1363544941.416888
Ntp930
a(F1363544940.916749
F1363544941.581491
tp931
a(F1363544941.9178751
F1363544942.4575441
tp932
a(F1363544942.417881
F1363544942.9735219
tp933
a(F1363544942.9182329
F1363544943.4473219
tp934
a(F1363544943.41837
F1363544943.9609621
tp935
a(F1363544943.918514
F1363544944.4751351
tp936
a(F1363544944.418833
F1363544944.9782541
tp937
a(F1363544944.919143
F1363544945.430228
tp938
a(F1363544945.4193089
F1363544946.51177
tp939
a(F1363544946.419667
Ntp940
a(F1363544945.9195731
F1363544946.7190959
tp941
a(F1363544946.9204919
F1363544947.4476881
tp942
a(F1363544947.420589
F1363544947.9705379
tp943
a(F1363544947.9208441
F1363544948.4609001
tp944
a(F1363544948.4208741
F1363544949.0083971
tp945
a(F1363544948.920902
F1363544949.4727061
tp946
a(F1363544949.421304
F1363544949.949605
tp947
a(F1363544949.9219141
F1363544950.4139919
tp948
a(F1363544950.4223371
F1363544951.019285
tp949
a(F1363544950.922354
F1363544951.492347
tp950
a(F1363544951.4225731
F1363544952.466598
tp951
a(F1363544951.9227121
F1363544952.7767589
tp952
a(F1363544952.422749
F1363544953.195776
tp953
a(F1363544952.9228539
F1363544953.5912831
tp954
a(F1363544953.4230659
F1363544954.0729661
tp955
a(F1363544953.9232631
F1363544954.5112441
tp956
a(F1363544954.423384
F1363544954.96351
tp957
a(F1363544954.923681
F1363544955.4438331
tp958
a(F1363544955.423907
F1363544955.9786389
tp959
a(F1363544955.9241381
F1363544956.4734471
tp960
a(F1363544956.424319
Ntp961
a(F1363544956.9246571
Ntp962
a(F1363544957.425277
Ntp963
a(F1363544957.9269519
Ntp964
a(F1363544958.428169
Ntp965
a(F1363544958.9295471
Ntp966
a(F1363544959.4301491
Ntp967
a(F1363544959.931139
Ntp968
a(F1363544960.433105
Ntp969
a(F1363544960.9337051
Ntp970
a(F1363544961.434665
Ntp971
a(F1363544961.936373
Ntp972
a(F1363544962.437885
Ntp973
a(F1363544962.9389989
Ntp974
a(F1363544963.4393761
Ntp975
a(F1363544963.9414289
Ntp976
a(F1363544964.4428329
Ntp977
a(F1363544964.9431951
Ntp978
a(F1363544965.443603
Ntp979
a(F1363544965.945704
Ntp980
a(F1363544966.4460869
Ntp981
a(F1363544966.94664
Ntp982
a(F1363544967.4472821
Ntp983
a(F1363544967.9480159
Ntp984
a(F1363544968.4495621
Ntp985
a(F1363544968.949626
Ntp986
a(F1363544969.4502389
Ntp987
a(F1363544969.951004
Ntp988
a(F1363544970.452188
Ntp989
a(F1363544970.953002
Ntp990
a(F1363544971.4533851
Ntp991
a(F1363544971.9550469
Ntp992
a(F1363544972.4559889
Ntp993
a.